target datalayout = "e-m:e-p270:32:32-p271:32:32-p272:64:64-i64:64-i128:128-f80:128-n8:16:32:64-S128"
target triple = "x86_64-pc-linux-gnu"

%class.ptr_vector = type { %class.vector }
%class.vector = type { ptr }
%class.obj_map = type { %class.core_hashtable }
%class.core_hashtable = type <{ ptr, i32, i32, i32, [4 x i8] }>
%class.obj_map.6 = type { %class.core_hashtable.7 }
%class.core_hashtable.7 = type <{ ptr, i32, i32, i32, [4 x i8] }>
%"class.(anonymous namespace)::expr_substitution_simplifier" = type { %class.dom_simplifier, ptr, %class.expr_substitution, %class.scoped_expr_substitution, %class.obj_map, %class.ref_vector }
%class.dom_simplifier = type { ptr }
%class.expr_substitution = type <{ ptr, %class.obj_map.6, %class.scoped_ptr, %class.scoped_ptr.44, i8, [7 x i8] }>
%class.scoped_ptr = type { ptr }
%class.scoped_ptr.44 = type { ptr }
%class.scoped_expr_substitution = type { ptr, %class.ref_vector, %class.svector.35 }
%class.svector.35 = type { %class.vector.36 }
%class.vector.36 = type { ptr }
%class.ref_vector = type { %class.ref_vector_core }
%class.ref_vector_core = type { %class.ref_manager_wrapper, %class.ptr_vector }
%class.ref_manager_wrapper = type { ptr }

; Function Attrs: mustprogress nounwind uwtable
define linkonce_odr hidden noundef i32 @_ZNK6vectorIjLb0EjE4sizeEv(ptr noundef nonnull align 8 dereferenceable(8) %0) #7 comdat align 2 {
  %2 = alloca i32, align 4
  %3 = alloca ptr, align 8
  store ptr %0, ptr %3, align 8, !tbaa !171
  %4 = load ptr, ptr %3, align 8
  %5 = getelementptr inbounds nuw %class.vector.36, ptr %4, i32 0, i32 0
  %6 = load ptr, ptr %5, align 8, !tbaa !173
  %7 = icmp eq ptr %6, null
  br i1 %7, label %8, label %9

8:                                                ; preds = %1
  store i32 0, ptr %2, align 4
  br label %14

9:                                                ; preds = %1
  %10 = getelementptr inbounds nuw %class.vector.36, ptr %4, i32 0, i32 0
  %11 = load ptr, ptr %10, align 8, !tbaa !173
  %12 = getelementptr inbounds i32, ptr %11, i64 -1
  %13 = load i32, ptr %12, align 4, !tbaa !8
  store i32 %13, ptr %2, align 4
  br label %14

14:                                               ; preds = %9, %8
  %15 = load i32, ptr %2, align 4
  ret i32 %15
}

; Function Attrs: mustprogress nounwind uwtable
define linkonce_odr hidden noundef i32 @_ZNK24scoped_expr_substitution11scope_levelEv(ptr noundef nonnull align 8 dereferenceable(32) %0) #7 comdat align 2 {
  %2 = alloca ptr, align 8
  store ptr %0, ptr %2, align 8, !tbaa !144
  %3 = load ptr, ptr %2, align 8
  %4 = getelementptr inbounds nuw %class.scoped_expr_substitution, ptr %3, i32 0, i32 2
  %5 = call noundef i32 @_ZNK6vectorIjLb0EjE4sizeEv(ptr noundef nonnull align 8 dereferenceable(8) %4)
  ret i32 %5
}

; Function Attrs: mustprogress uwtable
define internal noundef i32 @_ZNK12_GLOBAL__N_128expr_substitution_simplifier11scope_levelEv(ptr noundef nonnull align 8 dereferenceable(144) %0) unnamed_addr #4 align 2 {
  %2 = alloca ptr, align 8
  store ptr %0, ptr %2, align 8, !tbaa !93
  %3 = load ptr, ptr %2, align 8
  %4 = getelementptr inbounds nuw %"class.(anonymous namespace)::expr_substitution_simplifier", ptr %3, i32 0, i32 3
  %5 = call noundef i32 @_ZNK24scoped_expr_substitution11scope_levelEv(ptr noundef nonnull align 8 dereferenceable(32) %4)
  ret i32 %5
}